target datalayout = "e-m:e-p270:32:32-p271:32:32-p272:64:64-i64:64-i128:128-f80:128-n8:16:32:64-S128"
target triple = "x86_64-pc-linux-gnu"

%struct.jpeg_compress_struct = type { ptr, ptr, ptr, ptr, i32, i32, ptr, i32, i32, i32, i32, double, i32, i32, i32, ptr, [4 x ptr], [4 x ptr], [4 x ptr], [16 x i8], [16 x i8], [16 x i8], i32, ptr, i32, i32, i32, i32, i32, i32, i32, i32, i32, i8, i8, i8, i16, i16, i32, i32, i32, i32, i32, i32, i32, [4 x ptr], i32, i32, i32, [10 x i32], i32, i32, i32, i32, ptr, ptr, ptr, ptr, ptr, ptr, ptr, ptr, ptr, ptr, i32 }
%struct.jpeg_error_mgr = type { ptr, ptr, ptr, ptr, ptr, i32, %union.anon, i32, i64, ptr, i32, ptr, i32, i32 }
%union.anon = type { [8 x i32], [48 x i8] }
%struct.ppm_source_struct = type { %struct.cjpeg_source_struct, ptr, ptr, i64, ptr, i32 }
%struct.cjpeg_source_struct = type { ptr, ptr, ptr, ptr, ptr, ptr, ptr, i32, i32 }

; Function Attrs: alwaysinline nounwind uwtable
define internal void @rgb_to_cmyk(i32 noundef %0, i8 noundef zeroext %1, i8 noundef zeroext %2, i8 noundef zeroext %3, ptr noundef %4, ptr noundef %5, ptr noundef %6, ptr noundef %7) #4 {
  %9 = alloca i32, align 4
  %10 = alloca i8, align 1
  %11 = alloca i8, align 1
  %12 = alloca i8, align 1
  %13 = alloca ptr, align 8
  %14 = alloca ptr, align 8
  %15 = alloca ptr, align 8
  %16 = alloca ptr, align 8
  %17 = alloca double, align 8
  %18 = alloca double, align 8
  %19 = alloca double, align 8
  %20 = alloca double, align 8
  store i32 %0, ptr %9, align 4, !tbaa !49
  store i8 %1, ptr %10, align 1, !tbaa !32
  store i8 %2, ptr %11, align 1, !tbaa !32
  store i8 %3, ptr %12, align 1, !tbaa !32
  store ptr %4, ptr %13, align 8, !tbaa !73
  store ptr %5, ptr %14, align 8, !tbaa !73
  store ptr %6, ptr %15, align 8, !tbaa !73
  store ptr %7, ptr %16, align 8, !tbaa !73
  call void @llvm.lifetime.start.p0(i64 8, ptr %17) #6
  %21 = load i8, ptr %10, align 1, !tbaa !32
  %22 = uitofp i8 %21 to double
  %23 = load i32, ptr %9, align 4, !tbaa !49
  %24 = sitofp i32 %23 to double
  %25 = fdiv double %22, %24
  %26 = fsub double 1.000000e+00, %25
  store double %26, ptr %17, align 8, !tbaa !106
  call void @llvm.lifetime.start.p0(i64 8, ptr %18) #6
  %27 = load i8, ptr %11, align 1, !tbaa !32
  %28 = uitofp i8 %27 to double
  %29 = load i32, ptr %9, align 4, !tbaa !49
  %30 = sitofp i32 %29 to double
  %31 = fdiv double %28, %30
  %32 = fsub double 1.000000e+00, %31
  store double %32, ptr %18, align 8, !tbaa !106
  call void @llvm.lifetime.start.p0(i64 8, ptr %19) #6
  %33 = load i8, ptr %12, align 1, !tbaa !32
  %34 = uitofp i8 %33 to double
  %35 = load i32, ptr %9, align 4, !tbaa !49
  %36 = sitofp i32 %35 to double
  %37 = fdiv double %34, %36
  %38 = fsub double 1.000000e+00, %37
  store double %38, ptr %19, align 8, !tbaa !106
  call void @llvm.lifetime.start.p0(i64 8, ptr %20) #6
  %39 = load double, ptr %17, align 8, !tbaa !106
  %40 = load double, ptr %18, align 8, !tbaa !106
  %41 = fcmp olt double %39, %40
  br i1 %41, label %42, label %44

42:                                               ; preds = %8
  %43 = load double, ptr %17, align 8, !tbaa !106
  br label %46

44:                                               ; preds = %8
  %45 = load double, ptr %18, align 8, !tbaa !106
  br label %46

46:                                               ; preds = %44, %42
  %47 = phi double [ %43, %42 ], [ %45, %44 ]
  %48 = load double, ptr %19, align 8, !tbaa !106
  %49 = fcmp olt double %47, %48
  br i1 %49, label %50, label %60

50:                                               ; preds = %46
  %51 = load double, ptr %17, align 8, !tbaa !106
  %52 = load double, ptr %18, align 8, !tbaa !106
  %53 = fcmp olt double %51, %52
  br i1 %53, label %54, label %56

54:                                               ; preds = %50
  %55 = load double, ptr %17, align 8, !tbaa !106
  br label %58

56:                                               ; preds = %50
  %57 = load double, ptr %18, align 8, !tbaa !106
  br label %58

58:                                               ; preds = %56, %54
  %59 = phi double [ %55, %54 ], [ %57, %56 ]
  br label %62

60:                                               ; preds = %46
  %61 = load double, ptr %19, align 8, !tbaa !106
  br label %62

62:                                               ; preds = %60, %58
  %63 = phi double [ %59, %58 ], [ %61, %60 ]
  store double %63, ptr %20, align 8, !tbaa !106
  %64 = load double, ptr %20, align 8, !tbaa !106
  %65 = fcmp oeq double %64, 1.000000e+00
  br i1 %65, label %66, label %67

66:                                               ; preds = %62
  store double 0.000000e+00, ptr %19, align 8, !tbaa !106
  store double 0.000000e+00, ptr %18, align 8, !tbaa !106
  store double 0.000000e+00, ptr %17, align 8, !tbaa !106
  br label %86

67:                                               ; preds = %62
  %68 = load double, ptr %17, align 8, !tbaa !106
  %69 = load double, ptr %20, align 8, !tbaa !106
  %70 = fsub double %68, %69
  %71 = load double, ptr %20, align 8, !tbaa !106
  %72 = fsub double 1.000000e+00, %71
  %73 = fdiv double %70, %72
  store double %73, ptr %17, align 8, !tbaa !106
  %74 = load double, ptr %18, align 8, !tbaa !106
  %75 = load double, ptr %20, align 8, !tbaa !106
  %76 = fsub double %74, %75
  %77 = load double, ptr %20, align 8, !tbaa !106
  %78 = fsub double 1.000000e+00, %77
  %79 = fdiv double %76, %78
  store double %79, ptr %18, align 8, !tbaa !106
  %80 = load double, ptr %19, align 8, !tbaa !106
  %81 = load double, ptr %20, align 8, !tbaa !106
  %82 = fsub double %80, %81
  %83 = load double, ptr %20, align 8, !tbaa !106
  %84 = fsub double 1.000000e+00, %83
  %85 = fdiv double %82, %84
  store double %85, ptr %19, align 8, !tbaa !106
  br label %86

86:                                               ; preds = %67, %66
  %87 = load i32, ptr %9, align 4, !tbaa !49
  %88 = sitofp i32 %87 to double
  %89 = load double, ptr %17, align 8, !tbaa !106
  %90 = load i32, ptr %9, align 4, !tbaa !49
  %91 = sitofp i32 %90 to double
  %92 = fneg double %89
  %93 = call double @llvm.fmuladd.f64(double %92, double %91, double %88)
  %94 = fadd double %93, 5.000000e-01
  %95 = fptoui double %94 to i8
  %96 = load ptr, ptr %13, align 8, !tbaa !73
  store i8 %95, ptr %96, align 1, !tbaa !32
  %97 = load i32, ptr %9, align 4, !tbaa !49
  %98 = sitofp i32 %97 to double
  %99 = load double, ptr %18, align 8, !tbaa !106
  %100 = load i32, ptr %9, align 4, !tbaa !49
  %101 = sitofp i32 %100 to double
  %102 = fneg double %99
  %103 = call double @llvm.fmuladd.f64(double %102, double %101, double %98)
  %104 = fadd double %103, 5.000000e-01
  %105 = fptoui double %104 to i8
  %106 = load ptr, ptr %14, align 8, !tbaa !73
  store i8 %105, ptr %106, align 1, !tbaa !32
  %107 = load i32, ptr %9, align 4, !tbaa !49
  %108 = sitofp i32 %107 to double
  %109 = load double, ptr %19, align 8, !tbaa !106
  %110 = load i32, ptr %9, align 4, !tbaa !49
  %111 = sitofp i32 %110 to double
  %112 = fneg double %109
  %113 = call double @llvm.fmuladd.f64(double %112, double %111, double %108)
  %114 = fadd double %113, 5.000000e-01
  %115 = fptoui double %114 to i8
  %116 = load ptr, ptr %15, align 8, !tbaa !73
  store i8 %115, ptr %116, align 1, !tbaa !32
  %117 = load i32, ptr %9, align 4, !tbaa !49
  %118 = sitofp i32 %117 to double
  %119 = load double, ptr %20, align 8, !tbaa !106
  %120 = load i32, ptr %9, align 4, !tbaa !49
  %121 = sitofp i32 %120 to double
  %122 = fneg double %119
  %123 = call double @llvm.fmuladd.f64(double %122, double %121, double %118)
  %124 = fadd double %123, 5.000000e-01
  %125 = fptoui double %124 to i8
  %126 = load ptr, ptr %16, align 8, !tbaa !73
  store i8 %125, ptr %126, align 1, !tbaa !32
  call void @llvm.lifetime.end.p0(i64 8, ptr %20) #6
  call void @llvm.lifetime.end.p0(i64 8, ptr %19) #6
  call void @llvm.lifetime.end.p0(i64 8, ptr %18) #6
  call void @llvm.lifetime.end.p0(i64 8, ptr %17) #6
  ret void
}

; Function Attrs: nounwind uwtable
define internal i32 @get_word_gray_cmyk_row(ptr noundef %0, ptr noundef %1) #0 {
  %3 = alloca ptr, align 8
  %4 = alloca ptr, align 8
  %5 = alloca ptr, align 8
  %6 = alloca ptr, align 8
  %7 = alloca ptr, align 8
  %8 = alloca ptr, align 8
  %9 = alloca i32, align 4
  %10 = alloca i32, align 4
  %11 = alloca i32, align 4
  store ptr %0, ptr %3, align 8, !tbaa !4
  store ptr %1, ptr %4, align 8, !tbaa !46
  call void @llvm.lifetime.start.p0(i64 8, ptr %5) #6
  %12 = load ptr, ptr %4, align 8, !tbaa !46
  store ptr %12, ptr %5, align 8, !tbaa !37
  call void @llvm.lifetime.start.p0(i64 8, ptr %6) #6
  call void @llvm.lifetime.start.p0(i64 8, ptr %7) #6
  call void @llvm.lifetime.start.p0(i64 8, ptr %8) #6
  %13 = load ptr, ptr %5, align 8, !tbaa !37
  %14 = getelementptr inbounds nuw %struct.ppm_source_struct, ptr %13, i32 0, i32 4
  %15 = load ptr, ptr %14, align 8, !tbaa !66
  store ptr %15, ptr %8, align 8, !tbaa !73
  call void @llvm.lifetime.start.p0(i64 4, ptr %9) #6
  call void @llvm.lifetime.start.p0(i64 4, ptr %10) #6
  %16 = load ptr, ptr %5, align 8, !tbaa !37
  %17 = getelementptr inbounds nuw %struct.ppm_source_struct, ptr %16, i32 0, i32 5
  %18 = load i32, ptr %17, align 8, !tbaa !53
  store i32 %18, ptr %10, align 4, !tbaa !49
  %19 = load ptr, ptr %5, align 8, !tbaa !37
  %20 = getelementptr inbounds nuw %struct.ppm_source_struct, ptr %19, i32 0, i32 1
  %21 = load ptr, ptr %20, align 8, !tbaa !61
  %22 = load ptr, ptr %5, align 8, !tbaa !37
  %23 = getelementptr inbounds nuw %struct.ppm_source_struct, ptr %22, i32 0, i32 3
  %24 = load i64, ptr %23, align 8, !tbaa !60
  %25 = load ptr, ptr %5, align 8, !tbaa !37
  %26 = getelementptr inbounds nuw %struct.ppm_source_struct, ptr %25, i32 0, i32 0
  %27 = getelementptr inbounds nuw %struct.cjpeg_source_struct, ptr %26, i32 0, i32 3
  %28 = load ptr, ptr %27, align 8, !tbaa !48
  %29 = call i64 @fread(ptr noundef %21, i64 noundef 1, i64 noundef %24, ptr noundef %28)
  %30 = load ptr, ptr %5, align 8, !tbaa !37
  %31 = getelementptr inbounds nuw %struct.ppm_source_struct, ptr %30, i32 0, i32 3
  %32 = load i64, ptr %31, align 8, !tbaa !60
  %33 = icmp eq i64 %29, %32
  br i1 %33, label %45, label %34

34:                                               ; preds = %2
  %35 = load ptr, ptr %3, align 8, !tbaa !4
  %36 = getelementptr inbounds nuw %struct.jpeg_compress_struct, ptr %35, i32 0, i32 0
  %37 = load ptr, ptr %36, align 8, !tbaa !27
  %38 = getelementptr inbounds nuw %struct.jpeg_error_mgr, ptr %37, i32 0, i32 5
  store i32 43, ptr %38, align 8, !tbaa !28
  %39 = load ptr, ptr %3, align 8, !tbaa !4
  %40 = getelementptr inbounds nuw %struct.jpeg_compress_struct, ptr %39, i32 0, i32 0
  %41 = load ptr, ptr %40, align 8, !tbaa !27
  %42 = getelementptr inbounds nuw %struct.jpeg_error_mgr, ptr %41, i32 0, i32 0
  %43 = load ptr, ptr %42, align 8, !tbaa !33
  %44 = load ptr, ptr %3, align 8, !tbaa !4
  call void %43(ptr noundef %44)
  br label %45

45:                                               ; preds = %34, %2
  %46 = load ptr, ptr %5, align 8, !tbaa !37
  %47 = getelementptr inbounds nuw %struct.ppm_source_struct, ptr %46, i32 0, i32 0
  %48 = getelementptr inbounds nuw %struct.cjpeg_source_struct, ptr %47, i32 0, i32 4
  %49 = load ptr, ptr %48, align 8, !tbaa !63
  %50 = getelementptr inbounds ptr, ptr %49, i64 0
  %51 = load ptr, ptr %50, align 8, !tbaa !73
  store ptr %51, ptr %6, align 8, !tbaa !73
  %52 = load ptr, ptr %5, align 8, !tbaa !37
  %53 = getelementptr inbounds nuw %struct.ppm_source_struct, ptr %52, i32 0, i32 1
  %54 = load ptr, ptr %53, align 8, !tbaa !61
  store ptr %54, ptr %7, align 8, !tbaa !73
  %55 = load ptr, ptr %3, align 8, !tbaa !4
  %56 = getelementptr inbounds nuw %struct.jpeg_compress_struct, ptr %55, i32 0, i32 7
  %57 = load i32, ptr %56, align 8, !tbaa !51
  store i32 %57, ptr %9, align 4, !tbaa !49
  br label %58

58:                                               ; preds = %113, %45
  %59 = load i32, ptr %9, align 4, !tbaa !49
  %60 = icmp ugt i32 %59, 0
  br i1 %60, label %61, label %116

61:                                               ; preds = %58
  call void @llvm.lifetime.start.p0(i64 4, ptr %11) #6
  %62 = load ptr, ptr %7, align 8, !tbaa !73
  %63 = getelementptr inbounds nuw i8, ptr %62, i32 1
  store ptr %63, ptr %7, align 8, !tbaa !73
  %64 = load i8, ptr %62, align 1, !tbaa !32
  %65 = zext i8 %64 to i32
  %66 = shl i32 %65, 8
  store i32 %66, ptr %11, align 4, !tbaa !49
  %67 = load ptr, ptr %7, align 8, !tbaa !73
  %68 = getelementptr inbounds nuw i8, ptr %67, i32 1
  store ptr %68, ptr %7, align 8, !tbaa !73
  %69 = load i8, ptr %67, align 1, !tbaa !32
  %70 = zext i8 %69 to i32
  %71 = load i32, ptr %11, align 4, !tbaa !49
  %72 = or i32 %71, %70
  store i32 %72, ptr %11, align 4, !tbaa !49
  %73 = load i32, ptr %11, align 4, !tbaa !49
  %74 = load i32, ptr %10, align 4, !tbaa !49
  %75 = icmp ugt i32 %73, %74
  br i1 %75, label %76, label %87

76:                                               ; preds = %61
  %77 = load ptr, ptr %3, align 8, !tbaa !4
  %78 = getelementptr inbounds nuw %struct.jpeg_compress_struct, ptr %77, i32 0, i32 0
  %79 = load ptr, ptr %78, align 8, !tbaa !27
  %80 = getelementptr inbounds nuw %struct.jpeg_error_mgr, ptr %79, i32 0, i32 5
  store i32 1031, ptr %80, align 8, !tbaa !28
  %81 = load ptr, ptr %3, align 8, !tbaa !4
  %82 = getelementptr inbounds nuw %struct.jpeg_compress_struct, ptr %81, i32 0, i32 0
  %83 = load ptr, ptr %82, align 8, !tbaa !27
  %84 = getelementptr inbounds nuw %struct.jpeg_error_mgr, ptr %83, i32 0, i32 0
  %85 = load ptr, ptr %84, align 8, !tbaa !33
  %86 = load ptr, ptr %3, align 8, !tbaa !4
  call void %85(ptr noundef %86)
  br label %87

87:                                               ; preds = %76, %61
  %88 = load i32, ptr %10, align 4, !tbaa !49
  %89 = load ptr, ptr %8, align 8, !tbaa !73
  %90 = load i32, ptr %11, align 4, !tbaa !49
  %91 = zext i32 %90 to i64
  %92 = getelementptr inbounds nuw i8, ptr %89, i64 %91
  %93 = load i8, ptr %92, align 1, !tbaa !32
  %94 = load ptr, ptr %8, align 8, !tbaa !73
  %95 = load i32, ptr %11, align 4, !tbaa !49
  %96 = zext i32 %95 to i64
  %97 = getelementptr inbounds nuw i8, ptr %94, i64 %96
  %98 = load i8, ptr %97, align 1, !tbaa !32
  %99 = load ptr, ptr %8, align 8, !tbaa !73
  %100 = load i32, ptr %11, align 4, !tbaa !49
  %101 = zext i32 %100 to i64
  %102 = getelementptr inbounds nuw i8, ptr %99, i64 %101
  %103 = load i8, ptr %102, align 1, !tbaa !32
  %104 = load ptr, ptr %6, align 8, !tbaa !73
  %105 = load ptr, ptr %6, align 8, !tbaa !73
  %106 = getelementptr inbounds i8, ptr %105, i64 1
  %107 = load ptr, ptr %6, align 8, !tbaa !73
  %108 = getelementptr inbounds i8, ptr %107, i64 2
  %109 = load ptr, ptr %6, align 8, !tbaa !73
  %110 = getelementptr inbounds i8, ptr %109, i64 3
  call void @rgb_to_cmyk(i32 noundef %88, i8 noundef zeroext %93, i8 noundef zeroext %98, i8 noundef zeroext %103, ptr noundef %104, ptr noundef %106, ptr noundef %108, ptr noundef %110)
  %111 = load ptr, ptr %6, align 8, !tbaa !73
  %112 = getelementptr inbounds i8, ptr %111, i64 4
  store ptr %112, ptr %6, align 8, !tbaa !73
  call void @llvm.lifetime.end.p0(i64 4, ptr %11) #6
  br label %113

113:                                              ; preds = %87
  %114 = load i32, ptr %9, align 4, !tbaa !49
  %115 = add i32 %114, -1
  store i32 %115, ptr %9, align 4, !tbaa !49
  br label %58, !llvm.loop !89

116:                                              ; preds = %58
  call void @llvm.lifetime.end.p0(i64 4, ptr %10) #6
  call void @llvm.lifetime.end.p0(i64 4, ptr %9) #6
  call void @llvm.lifetime.end.p0(i64 8, ptr %8) #6
  call void @llvm.lifetime.end.p0(i64 8, ptr %7) #6
  call void @llvm.lifetime.end.p0(i64 8, ptr %6) #6
  call void @llvm.lifetime.end.p0(i64 8, ptr %5) #6
  ret i32 1
}