; Function Attrs: nounwind uwtable
define internal noundef i32 @get_word_gray_cmyk_row(ptr noundef %0, ptr noundef readonly captures(none) %1) #0 {
  %3 = getelementptr inbounds nuw i8, ptr %1, i64 88
  %4 = load ptr, ptr %3, align 8, !tbaa !59
  %5 = getelementptr inbounds nuw i8, ptr %1, i64 96
  %6 = load i32, ptr %5, align 8, !tbaa !47
  %7 = getelementptr inbounds nuw i8, ptr %1, i64 64
  %8 = load ptr, ptr %7, align 8, !tbaa !54
  %9 = getelementptr inbounds nuw i8, ptr %1, i64 80
  %10 = load i64, ptr %9, align 8, !tbaa !53
  %11 = getelementptr inbounds nuw i8, ptr %1, i64 24
  %12 = load ptr, ptr %11, align 8, !tbaa !43
  %13 = tail call i64 @fread(ptr noundef %8, i64 noundef 1, i64 noundef %10, ptr noundef %12)
  %14 = load i64, ptr %9, align 8, !tbaa !53
  %15 = icmp eq i64 %13, %14
  br i1 %15, label %20, label %16

16:                                               ; preds = %2
  %17 = load ptr, ptr %0, align 8, !tbaa !25
  %18 = getelementptr inbounds nuw i8, ptr %17, i64 40
  store i32 43, ptr %18, align 8, !tbaa !26
  %19 = load ptr, ptr %17, align 8, !tbaa !31
  tail call void %19(ptr noundef nonnull %0) #6
  br label %20

20:                                               ; preds = %16, %2
  %21 = getelementptr inbounds nuw i8, ptr %0, i64 48
  %22 = load i32, ptr %21, align 8, !tbaa !45
  %.not36 = icmp eq i32 %22, 0
  br i1 %.not36, label %._crit_edge, label %.lr.ph

.lr.ph:                                           ; preds = %20
  %23 = load ptr, ptr %7, align 8, !tbaa !54
  %24 = getelementptr inbounds nuw i8, ptr %1, i64 32
  %25 = load ptr, ptr %24, align 8, !tbaa !57
  %26 = load ptr, ptr %25, align 8, !tbaa !63
  %27 = sitofp i32 %6 to double
  br label %28

28:                                               ; preds = %.lr.ph, %rgb_to_cmyk.exit
  %.039 = phi ptr [ %26, %.lr.ph ], [ %63, %rgb_to_cmyk.exit ]
  %.03438 = phi i32 [ %22, %.lr.ph ], [ %64, %rgb_to_cmyk.exit ]
  %.03537 = phi ptr [ %23, %.lr.ph ], [ %33, %rgb_to_cmyk.exit ]
  %29 = getelementptr inbounds nuw i8, ptr %.03537, i64 1
  %30 = load i8, ptr %.03537, align 1, !tbaa !30
  %31 = zext i8 %30 to i32
  %32 = shl nuw nsw i32 %31, 8
  %33 = getelementptr inbounds nuw i8, ptr %.03537, i64 2
  %34 = load i8, ptr %29, align 1, !tbaa !30
  %35 = zext i8 %34 to i32
  %36 = or disjoint i32 %32, %35
  %37 = icmp ugt i32 %36, %6
  br i1 %37, label %38, label %rgb_to_cmyk.exit

38:                                               ; preds = %28
  %39 = load ptr, ptr %0, align 8, !tbaa !25
  %40 = getelementptr inbounds nuw i8, ptr %39, i64 40
  store i32 1031, ptr %40, align 8, !tbaa !26
  %41 = load ptr, ptr %39, align 8, !tbaa !31
  tail call void %41(ptr noundef nonnull %0) #6
  br label %rgb_to_cmyk.exit

rgb_to_cmyk.exit:                                 ; preds = %38, %28
  %42 = zext nneg i32 %36 to i64
  %43 = getelementptr inbounds nuw i8, ptr %4, i64 %42
  %44 = load i8, ptr %43, align 1, !tbaa !30
  %45 = getelementptr inbounds nuw i8, ptr %.039, i64 1
  %46 = getelementptr inbounds nuw i8, ptr %.039, i64 2
  %47 = getelementptr inbounds nuw i8, ptr %.039, i64 3
  %48 = uitofp i8 %44 to double
  %49 = fdiv double %48, %27
  %50 = fsub double 1.000000e+00, %49
  %51 = fcmp oeq double %50, 1.000000e+00
  %52 = fsub double %50, %50
  %53 = fsub double 1.000000e+00, %50
  %54 = fneg double %52
  %.neg = fdiv double %54, %53
  %55 = select i1 %51, double -0.000000e+00, double %.neg
  %56 = tail call double @llvm.fmuladd.f64(double %55, double %27, double %27)
  %57 = fadd double %56, 5.000000e-01
  %58 = fptoui double %57 to i8
  store i8 %58, ptr %.039, align 1, !tbaa !30
  store i8 %58, ptr %45, align 1, !tbaa !30
  store i8 %58, ptr %46, align 1, !tbaa !30
  %59 = fneg double %50
  %60 = tail call double @llvm.fmuladd.f64(double %59, double %27, double %27)
  %61 = fadd double %60, 5.000000e-01
  %62 = fptoui double %61 to i8
  store i8 %62, ptr %47, align 1, !tbaa !30
  %63 = getelementptr inbounds nuw i8, ptr %.039, i64 4
  %64 = add i32 %.03438, -1
  %.not = icmp eq i32 %64, 0
  br i1 %.not, label %._crit_edge, label %28, !llvm.loop !79

._crit_edge:                                      ; preds = %rgb_to_cmyk.exit, %20
  ret i32 1
}